Certificate:
    Data:
        Version: 1 (0x0)
        Serial Number: 1048577 (0x100001)
    Signature Algorithm: md5WithRSAEncryption
        Issuer: O=University of Toronto, OU=ECE568/emailAddress=fakeau@ecf.utoronto.ca, L=Toronto, ST=Ontario, C=CA, CN=fakeau
        Validity
            Not Before: Mar  3 05:33:39 2017 GMT
            Not After : Mar  3 05:33:39 2018 GMT
        Subject: C=CA, ST=Ontario, O=University of Toronto, OU=ECE568, CN=John
        Subject Public Key Info:
            Public Key Algorithm: rsaEncryption
                Public-Key: (1024 bit)
                Modulus:
                    00:e8:bd:92:aa:58:5d:f2:b8:09:f2:62:8d:3b:e8:
                    4c:56:d3:fd:c7:9d:0e:8f:b8:b9:16:ea:6c:6b:2a:
                    e7:8a:5a:88:04:3a:b3:d5:40:dd:af:79:e6:95:65:
                    62:20:19:50:00:05:94:a9:14:7b:6b:06:f3:94:a8:
                    53:76:c8:16:9a:06:55:5b:42:33:dd:89:e6:22:d4:
                    02:f0:6f:e8:61:d5:96:25:46:79:bf:de:0b:c9:c2:
                    02:8b:9e:09:31:5d:78:cf:e8:07:43:94:d4:74:b1:
                    f2:6e:11:12:8c:20:b0:1b:19:14:bc:38:8a:02:30:
                    50:22:b0:d6:5c:bb:ee:22:bd
                Exponent: 65537 (0x10001)
    Signature Algorithm: md5WithRSAEncryption
         4d:46:e4:ee:c5:b3:93:b9:e3:a9:39:82:d2:c2:4f:65:c6:25:
         63:3a:d8:97:bb:49:ee:d3:24:5c:96:17:23:cb:da:82:37:b8:
         dc:88:2b:fe:89:5e:0e:f4:5d:a1:0f:3a:c7:73:3d:d5:b2:6f:
         f7:08:00:9e:8a:3d:1b:c8:03:c9:db:fb:66:fd:84:8d:58:b9:
         7d:77:84:44:5f:c7:9c:d8:38:d9:6c:a4:db:88:e9:31:c8:9f:
         1b:54:91:59:3d:78:c3:b9:5a:58:c7:24:76:2c:f0:2e:00:01:
         50:6b:0f:40:1f:c4:b7:b8:b4:c2:01:d8:6e:9f:a0:76:90:11:
         ab:a1
-----BEGIN CERTIFICATE-----
MIICazCCAdQCAxAAATANBgkqhkiG9w0BAQQFADCBmjEeMBwGA1UEChMVVW5pdmVy
c2l0eSBvZiBUb3JvbnRvMQ8wDQYDVQQLEwZFQ0U1NjgxJTAjBgkqhkiG9w0BCQEW
FmZha2VhdUBlY2YudXRvcm9udG8uY2ExEDAOBgNVBAcTB1Rvcm9udG8xEDAOBgNV
BAgTB09udGFyaW8xCzAJBgNVBAYTAkNBMQ8wDQYDVQQDEwZmYWtlYXUwHhcNMTcw
MzAzMDUzMzM5WhcNMTgwMzAzMDUzMzM5WjBfMQswCQYDVQQGEwJDQTEQMA4GA1UE
CBMHT250YXJpbzEeMBwGA1UEChMVVW5pdmVyc2l0eSBvZiBUb3JvbnRvMQ8wDQYD
VQQLEwZFQ0U1NjgxDTALBgNVBAMTBEpvaG4wgZ8wDQYJKoZIhvcNAQEBBQADgY0A
MIGJAoGBAOi9kqpYXfK4CfJijTvoTFbT/cedDo+4uRbqbGsq54paiAQ6s9VA3a95
5pVlYiAZUAAFlKkUe2sG85SoU3bIFpoGVVtCM92J5iLUAvBv6GHVliVGeb/eC8nC
AoueCTFdeM/oB0OU1HSx8m4REowgsBsZFLw4igIwUCKw1ly77iK9AgMBAAEwDQYJ
KoZIhvcNAQEEBQADgYEATUbk7sWzk7njqTmC0sJPZcYlYzrYl7tJ7tMkXJYXI8va
gje43Igr/oleDvRdoQ86x3M91bJv9wgAnoo9G8gDydv7Zv2EjVi5fXeERF/HnNg4
2Wyk24jpMcifG1SRWT14w7laWMckdizwLgABUGsPQB/Et7i0wgHYbp+gdpARq6E=
-----END CERTIFICATE-----
