Certificate:
    Data:
        Version: 1 (0x0)
        Serial Number: 1048578 (0x100002)
    Signature Algorithm: md5WithRSAEncryption
        Issuer: O=University of Toronto, OU=ECE568/emailAddress=fakeau@ecf.utoronto.ca, L=Toronto, ST=Ontario, C=CA, CN=fakeau
        Validity
            Not Before: Mar  3 05:41:05 2017 GMT
            Not After : Mar  3 05:41:05 2018 GMT
        Subject: C=CA, ST=Ontario, O=University of Toronto, OU=ECE568, CN=server
        Subject Public Key Info:
            Public Key Algorithm: rsaEncryption
                Public-Key: (1024 bit)
                Modulus:
                    00:f2:58:25:dc:af:6c:04:e3:30:5e:c8:0c:93:39:
                    2b:cb:3f:0f:39:c0:6f:fe:c1:9f:c4:2e:6a:38:63:
                    76:d5:66:16:f1:e0:f4:45:8c:e2:91:09:ab:32:18:
                    06:3d:e6:78:dd:bc:e4:13:43:85:94:a6:ec:dd:33:
                    3c:40:4f:bd:f9:09:f8:02:17:44:df:d8:3c:04:62:
                    01:15:e1:73:b7:56:e7:19:6c:4e:42:dc:71:87:32:
                    64:3e:bc:5e:cf:08:db:35:83:ce:dd:c1:85:51:7e:
                    62:dc:6e:05:de:5b:b2:da:87:64:6a:0e:bb:3b:85:
                    4c:ed:64:b6:3e:62:cb:06:cb
                Exponent: 65537 (0x10001)
    Signature Algorithm: md5WithRSAEncryption
         a6:29:33:ac:79:be:00:a2:aa:ff:c6:bc:48:de:0c:0b:bc:0f:
         7a:24:05:c9:44:fc:c4:bc:c5:53:f6:02:f8:4d:e6:06:35:4b:
         68:53:7d:38:0d:64:f0:97:60:2f:74:55:c2:fe:93:d6:cb:c0:
         01:b7:15:df:6c:d9:51:99:3f:5a:b0:b7:b4:d3:84:99:6c:0c:
         91:c1:fc:c0:47:da:1e:90:5d:3f:05:3a:6a:17:31:22:9d:eb:
         09:59:78:47:d0:b7:62:f4:cc:82:48:06:58:06:56:cc:8b:4e:
         dc:9c:ec:0f:2a:bf:3b:f6:3e:44:06:1f:3d:b0:43:1a:34:88:
         c4:cb
-----BEGIN CERTIFICATE-----
MIICbTCCAdYCAxAAAjANBgkqhkiG9w0BAQQFADCBmjEeMBwGA1UEChMVVW5pdmVy
c2l0eSBvZiBUb3JvbnRvMQ8wDQYDVQQLEwZFQ0U1NjgxJTAjBgkqhkiG9w0BCQEW
FmZha2VhdUBlY2YudXRvcm9udG8uY2ExEDAOBgNVBAcTB1Rvcm9udG8xEDAOBgNV
BAgTB09udGFyaW8xCzAJBgNVBAYTAkNBMQ8wDQYDVQQDEwZmYWtlYXUwHhcNMTcw
MzAzMDU0MTA1WhcNMTgwMzAzMDU0MTA1WjBhMQswCQYDVQQGEwJDQTEQMA4GA1UE
CBMHT250YXJpbzEeMBwGA1UEChMVVW5pdmVyc2l0eSBvZiBUb3JvbnRvMQ8wDQYD
VQQLEwZFQ0U1NjgxDzANBgNVBAMTBnNlcnZlcjCBnzANBgkqhkiG9w0BAQEFAAOB
jQAwgYkCgYEA8lgl3K9sBOMwXsgMkzkryz8POcBv/sGfxC5qOGN21WYW8eD0RYzi
kQmrMhgGPeZ43bzkE0OFlKbs3TM8QE+9+Qn4AhdE39g8BGIBFeFzt1bnGWxOQtxx
hzJkPrxezwjbNYPO3cGFUX5i3G4F3luy2odkag67O4VM7WS2PmLLBssCAwEAATAN
BgkqhkiG9w0BAQQFAAOBgQCmKTOseb4Aoqr/xrxI3gwLvA96JAXJRPzEvMVT9gL4
TeYGNUtoU304DWTwl2AvdFXC/pPWy8ABtxXfbNlRmT9asLe004SZbAyRwfzAR9oe
kF0/BTpqFzEinesJWXhH0Ldi9MyCSAZYBlbMi07cnOwPKr879j5EBh89sEMaNIjE
yw==
-----END CERTIFICATE-----
